target datalayout = "e-m:e-p270:32:32-p271:32:32-p272:64:64-i64:64-i128:128-f80:128-n8:16:32:64-S128"
target triple = "x86_64-pc-linux-gnu"

%struct.luaL_Buffer = type { ptr, i32, ptr, [8192 x i8] }

; Function Attrs: nounwind uwtable
define internal i32 @read_line(ptr noundef %0, ptr noundef %1) #0 {
  %3 = alloca i32, align 4
  %4 = alloca ptr, align 8
  %5 = alloca ptr, align 8
  %6 = alloca %struct.luaL_Buffer, align 8
  %7 = alloca i64, align 8
  %8 = alloca ptr, align 8
  %9 = alloca i32, align 4
  store ptr %0, ptr %4, align 8, !tbaa !4
  store ptr %1, ptr %5, align 8, !tbaa !9
  call void @llvm.lifetime.start.p0(i64 8216, ptr %6) #6
  %10 = load ptr, ptr %4, align 8, !tbaa !4
  call void @luaL_buffinit(ptr noundef %10, ptr noundef %6)
  br label %11

11:                                               ; preds = %49, %2
  call void @llvm.lifetime.start.p0(i64 8, ptr %7) #6
  call void @llvm.lifetime.start.p0(i64 8, ptr %8) #6
  %12 = call ptr @luaL_prepbuffer(ptr noundef %6)
  store ptr %12, ptr %8, align 8, !tbaa !16
  %13 = load ptr, ptr %8, align 8, !tbaa !16
  %14 = load ptr, ptr %5, align 8, !tbaa !9
  %15 = call ptr @fgets(ptr noundef %13, i32 noundef 8192, ptr noundef %14)
  %16 = icmp eq ptr %15, null
  br i1 %16, label %17, label %22

17:                                               ; preds = %11
  call void @luaL_pushresult(ptr noundef %6)
  %18 = load ptr, ptr %4, align 8, !tbaa !4
  %19 = call i64 @lua_objlen(ptr noundef %18, i32 noundef -1)
  %20 = icmp ugt i64 %19, 0
  %21 = zext i1 %20 to i32
  store i32 %21, ptr %3, align 4
  store i32 1, ptr %9, align 4
  br label %47

22:                                               ; preds = %11
  %23 = load ptr, ptr %8, align 8, !tbaa !16
  %24 = call i64 @strlen(ptr noundef %23) #8
  store i64 %24, ptr %7, align 8, !tbaa !18
  %25 = load i64, ptr %7, align 8, !tbaa !18
  %26 = icmp eq i64 %25, 0
  br i1 %26, label %35, label %27

27:                                               ; preds = %22
  %28 = load ptr, ptr %8, align 8, !tbaa !16
  %29 = load i64, ptr %7, align 8, !tbaa !18
  %30 = sub i64 %29, 1
  %31 = getelementptr inbounds nuw i8, ptr %28, i64 %30
  %32 = load i8, ptr %31, align 1, !tbaa !20
  %33 = sext i8 %32 to i32
  %34 = icmp ne i32 %33, 10
  br i1 %34, label %35, label %40

35:                                               ; preds = %27, %22
  %36 = load i64, ptr %7, align 8, !tbaa !18
  %37 = getelementptr inbounds nuw %struct.luaL_Buffer, ptr %6, i32 0, i32 0
  %38 = load ptr, ptr %37, align 8, !tbaa !21
  %39 = getelementptr inbounds nuw i8, ptr %38, i64 %36
  store ptr %39, ptr %37, align 8, !tbaa !21
  br label %46

40:                                               ; preds = %27
  %41 = load i64, ptr %7, align 8, !tbaa !18
  %42 = sub i64 %41, 1
  %43 = getelementptr inbounds nuw %struct.luaL_Buffer, ptr %6, i32 0, i32 0
  %44 = load ptr, ptr %43, align 8, !tbaa !21
  %45 = getelementptr inbounds nuw i8, ptr %44, i64 %42
  store ptr %45, ptr %43, align 8, !tbaa !21
  call void @luaL_pushresult(ptr noundef %6)
  store i32 1, ptr %3, align 4
  store i32 1, ptr %9, align 4
  br label %47

46:                                               ; preds = %35
  store i32 0, ptr %9, align 4
  br label %47

47:                                               ; preds = %46, %40, %17
  call void @llvm.lifetime.end.p0(i64 8, ptr %8) #6
  call void @llvm.lifetime.end.p0(i64 8, ptr %7) #6
  %48 = load i32, ptr %9, align 4
  switch i32 %48, label %50 [
    i32 0, label %49
  ]

49:                                               ; preds = %47
  br label %11

50:                                               ; preds = %47
  call void @llvm.lifetime.end.p0(i64 8216, ptr %6) #6
  %51 = load i32, ptr %3, align 4
  ret i32 %51
}