; Function Attrs: nounwind uwtable
define internal fastcc range(i32 0, 2) i32 @read_line(ptr noundef %0, ptr noundef captures(none) %1) unnamed_addr #0 {
  %3 = alloca %struct.luaL_Buffer, align 8
  call void @llvm.lifetime.start.p0(i64 8216, ptr nonnull %3) #9
  call void @luaL_buffinit(ptr noundef %0, ptr noundef nonnull %3) #9
  %4 = call ptr @luaL_prepbuffer(ptr noundef nonnull %3) #9
  %5 = call ptr @fgets(ptr noundef %4, i32 noundef 8192, ptr noundef %1)
  %6 = icmp eq ptr %5, null
  br i1 %6, label %._crit_edge, label %.lr.ph

._crit_edge:                                      ; preds = %20, %2
  call void @luaL_pushresult(ptr noundef nonnull %3) #9
  %7 = call i64 @lua_objlen(ptr noundef %0, i32 noundef -1) #9
  %8 = icmp ne i64 %7, 0
  %9 = zext i1 %8 to i32
  br label %26

.lr.ph:                                           ; preds = %2, %20
  %10 = phi ptr [ %23, %20 ], [ %4, %2 ]
  %11 = call i64 @strlen(ptr noundef nonnull dereferenceable(1) %10) #11
  %12 = icmp eq i64 %11, 0
  br i1 %12, label %20, label %13

13:                                               ; preds = %.lr.ph
  %14 = add i64 %11, -1
  %15 = getelementptr inbounds nuw i8, ptr %10, i64 %14
  %16 = load i8, ptr %15, align 1, !tbaa !11
  %.not = icmp eq i8 %16, 10
  br i1 %.not, label %17, label %20

17:                                               ; preds = %13
  %18 = load ptr, ptr %3, align 8, !tbaa !12
  %19 = getelementptr inbounds nuw i8, ptr %18, i64 %14
  store ptr %19, ptr %3, align 8, !tbaa !12
  call void @luaL_pushresult(ptr noundef nonnull %3) #9
  br label %26

20:                                               ; preds = %.lr.ph, %13
  %21 = load ptr, ptr %3, align 8, !tbaa !12
  %22 = getelementptr inbounds nuw i8, ptr %21, i64 %11
  store ptr %22, ptr %3, align 8, !tbaa !12
  %23 = call ptr @luaL_prepbuffer(ptr noundef nonnull %3) #9
  %24 = call ptr @fgets(ptr noundef %23, i32 noundef 8192, ptr noundef %1)
  %25 = icmp eq ptr %24, null
  br i1 %25, label %._crit_edge, label %.lr.ph

26:                                               ; preds = %._crit_edge, %17
  %.1.ph = phi i32 [ 1, %17 ], [ %9, %._crit_edge ]
  call void @llvm.lifetime.end.p0(i64 8216, ptr nonnull %3) #9
  ret i32 %.1.ph
}